target datalayout = "e-m:e-p270:32:32-p271:32:32-p272:64:64-i64:64-i128:128-f80:128-n8:16:32:64-S128"
target triple = "x86_64-pc-linux-gnu"

%"class.std::__cxx11::basic_string" = type { %"struct.std::__cxx11::basic_string<char>::_Alloc_hider", i64, %union.anon }
%"struct.std::__cxx11::basic_string<char>::_Alloc_hider" = type { ptr }
%union.anon = type { i64, [8 x i8] }
%struct.ThreadData = type { [4 x i32], i32, i8, [4 x [4 x i16]], i32, %struct.pos, i8, [50 x [4 x i16]], [13 x %struct.WinnersType], [14 x %struct.moveType], [50 x %struct.moveType], [50 x %struct.moveType], double, i32, i32, [8192 x %struct.relRanksType], ptr, %class.Moves }
%struct.pos = type { [4 x [4 x i16]], [4 x i16], [4 x [4 x i8]], [4 x i32], [50 x [4 x i16]], [50 x i32], [50 x %struct.moveType], i32, i32, [4 x %struct.highCardType], [4 x %struct.highCardType] }
%struct.highCardType = type { i32, i32 }
%struct.WinnersType = type { i32, [4 x %struct.WinnerEntryType] }
%struct.WinnerEntryType = type { i32, i32, i32, i32, i32 }
%struct.moveType = type { i32, i32, i32, i32 }
%struct.relRanksType = type { [15 x [4 x %struct.absRankType]] }
%struct.absRankType = type { i8, i8 }
%class.Moves = type { i32, i32, i32, i32, i32, i32, i32, i32, i32, [13 x %"struct.Moves::trackType"], ptr, [13 x [4 x %struct.movePlyType]], ptr, [13 x [4 x i32]], [13 x %"class.std::__cxx11::basic_string"], [13 x [4 x %"struct.Moves::moveStatType"]], [13 x [4 x %"struct.Moves::moveStatType"]], [13 x [4 x %"struct.Moves::moveStatsType"]], [13 x [4 x %"struct.Moves::moveStatsType"]], %"struct.Moves::moveStatsType", %"struct.Moves::moveStatsType", [16 x { i64, i64 }] }
%"struct.Moves::trackType" = type { i32, i32, [4 x i32], [4 x i32], %struct.trickDataType, [4 x %struct.extCard], [4 x i32], [4 x [4 x i32]], [4 x i32] }
%struct.trickDataType = type { [4 x i32], i32, i32, i32, i32, i32 }
%struct.extCard = type { i32, i32, i32 }
%struct.movePlyType = type { [14 x %struct.moveType], i32, i32 }
%"struct.Moves::moveStatType" = type { i32, i32, i32, i32 }
%"struct.Moves::moveStatsType" = type { i32, [13 x %"struct.Moves::moveStatType"] }

; Function Attrs: mustprogress nounwind uwtable
define noundef double @_Z16ThreadMemoryUsedv() #5 {
  %1 = alloca double, align 8
  store double 9.600000e+02, ptr %1, align 8
  %2 = load double, ptr %1, align 8
  ret double %2
}

; Function Attrs: mustprogress uwtable
define void @_Z14ResetBestMovesP10ThreadData(ptr noundef %0) #4 {
  %2 = alloca ptr, align 8
  %3 = alloca i32, align 4
  store ptr %0, ptr %2, align 8
  store i32 0, ptr %3, align 4
  br label %4

4:                                                ; preds = %20, %1
  %5 = load i32, ptr %3, align 4
  %6 = icmp sle i32 %5, 49
  br i1 %6, label %7, label %23

7:                                                ; preds = %4
  %8 = load ptr, ptr %2, align 8
  %9 = getelementptr inbounds nuw %struct.ThreadData, ptr %8, i32 0, i32 10
  %10 = load i32, ptr %3, align 4
  %11 = sext i32 %10 to i64
  %12 = getelementptr inbounds [50 x %struct.moveType], ptr %9, i64 0, i64 %11
  %13 = getelementptr inbounds nuw %struct.moveType, ptr %12, i32 0, i32 1
  store i32 0, ptr %13, align 4
  %14 = load ptr, ptr %2, align 8
  %15 = getelementptr inbounds nuw %struct.ThreadData, ptr %14, i32 0, i32 11
  %16 = load i32, ptr %3, align 4
  %17 = sext i32 %16 to i64
  %18 = getelementptr inbounds [50 x %struct.moveType], ptr %15, i64 0, i64 %17
  %19 = getelementptr inbounds nuw %struct.moveType, ptr %18, i32 0, i32 1
  store i32 0, ptr %19, align 4
  br label %20

20:                                               ; preds = %7
  %21 = load i32, ptr %3, align 4
  %22 = add nsw i32 %21, 1
  store i32 %22, ptr %3, align 4
  br label %4, !llvm.loop !37

23:                                               ; preds = %4
  %24 = load ptr, ptr %2, align 8
  %25 = getelementptr inbounds nuw %struct.ThreadData, ptr %24, i32 0, i32 16
  %26 = load ptr, ptr %25, align 8
  %27 = load ptr, ptr %26, align 8
  %28 = getelementptr inbounds ptr, ptr %27, i64 8
  %29 = load ptr, ptr %28, align 8
  %30 = call noundef double %29(ptr noundef nonnull align 8 dereferenceable(8) %26)
  %31 = call noundef double @_Z16ThreadMemoryUsedv()
  %32 = fadd double %30, %31
  %33 = load ptr, ptr %2, align 8
  %34 = getelementptr inbounds nuw %struct.ThreadData, ptr %33, i32 0, i32 12
  store double %32, ptr %34, align 8
  ret void
}