; Function Attrs: mustprogress uwtable
define void @_Z14ResetBestMovesP10ThreadData(ptr noundef captures(none) %0) local_unnamed_addr #3 {
  %2 = getelementptr i8, ptr %0, i64 3328
  %3 = getelementptr i8, ptr %0, i64 4128
  br label %4

4:                                                ; preds = %1, %4
  %indvars.iv = phi i64 [ 0, %1 ], [ %indvars.iv.next, %4 ]
  %5 = shl nuw nsw i64 %indvars.iv, 4
  %6 = getelementptr i8, ptr %2, i64 %5
  store i32 0, ptr %6, align 4
  %7 = getelementptr i8, ptr %3, i64 %5
  store i32 0, ptr %7, align 4
  %indvars.iv.next = add nuw nsw i64 %indvars.iv, 1
  %exitcond.not = icmp eq i64 %indvars.iv.next, 50
  br i1 %exitcond.not, label %8, label %4, !llvm.loop !37

8:                                                ; preds = %4
  %9 = getelementptr inbounds nuw i8, ptr %0, i64 987984
  %10 = load ptr, ptr %9, align 8
  %11 = load ptr, ptr %10, align 8
  %12 = getelementptr inbounds nuw i8, ptr %11, i64 64
  %13 = load ptr, ptr %12, align 8
  %14 = tail call noundef double %13(ptr noundef nonnull align 8 dereferenceable(8) %10)
  %15 = fadd double %14, 9.600000e+02
  %16 = getelementptr inbounds nuw i8, ptr %0, i64 4928
  store double %15, ptr %16, align 8
  ret void
}